target datalayout = "e-m:e-p270:32:32-p271:32:32-p272:64:64-i64:64-i128:128-f80:128-n8:16:32:64-S128"
target triple = "x86_64-pc-linux-gnu"

%"struct.llvm::detail::PunnedPointer.5" = type { [8 x i8] }
%"class.clang::SourceLocation" = type { i32 }
%"class.clang::QualType" = type { %"class.llvm::PointerIntPair.6" }
%"class.llvm::PointerIntPair.6" = type { %"struct.llvm::detail::PunnedPointer.7" }
%"struct.llvm::detail::PunnedPointer.7" = type { [8 x i8] }
%"class.clang::ValueDecl" = type { %"class.clang::NamedDecl", %"class.clang::QualType" }
%"class.clang::NamedDecl" = type { %"class.clang::Decl.base", %"class.clang::DeclarationName" }
%"class.clang::Decl.base" = type <{ ptr, %"class.llvm::PointerIntPair", %"class.llvm::PointerUnion", %"class.clang::SourceLocation", i32, i8 }>
%"class.llvm::PointerIntPair" = type { %"struct.llvm::detail::PunnedPointer" }
%"struct.llvm::detail::PunnedPointer" = type { [8 x i8] }
%"class.llvm::PointerUnion" = type { %"class.llvm::pointer_union_detail::PointerUnionMembers" }
%"class.llvm::pointer_union_detail::PointerUnionMembers" = type { %"class.llvm::pointer_union_detail::PointerUnionMembers.2" }
%"class.llvm::pointer_union_detail::PointerUnionMembers.2" = type { %"class.llvm::pointer_union_detail::PointerUnionMembers.3" }
%"class.llvm::pointer_union_detail::PointerUnionMembers.3" = type { %"class.llvm::PointerIntPair.4" }
%"class.llvm::PointerIntPair.4" = type { %"struct.llvm::detail::PunnedPointer.5" }
%"class.clang::DeclarationName" = type { i64 }
%"class.clang::DeclaratorDecl.base" = type <{ %"class.clang::ValueDecl", %"class.llvm::PointerUnion.8", %"class.clang::SourceLocation" }>
%"class.llvm::PointerUnion.8" = type { %"class.llvm::pointer_union_detail::PointerUnionMembers.9" }
%"class.llvm::pointer_union_detail::PointerUnionMembers.9" = type { %"class.llvm::pointer_union_detail::PointerUnionMembers.10" }
%"class.llvm::pointer_union_detail::PointerUnionMembers.10" = type { %"class.llvm::pointer_union_detail::PointerUnionMembers.11" }
%"class.llvm::pointer_union_detail::PointerUnionMembers.11" = type { %"class.llvm::PointerIntPair.12" }
%"class.llvm::PointerIntPair.12" = type { %"struct.llvm::detail::PunnedPointer.5" }
%"class.llvm::PointerUnion.395" = type { %"class.llvm::pointer_union_detail::PointerUnionMembers.396" }
%"class.llvm::pointer_union_detail::PointerUnionMembers.396" = type { %"class.llvm::pointer_union_detail::PointerUnionMembers.397" }
%"class.llvm::pointer_union_detail::PointerUnionMembers.397" = type { %"class.llvm::pointer_union_detail::PointerUnionMembers.398" }
%"class.llvm::pointer_union_detail::PointerUnionMembers.398" = type { %"class.llvm::PointerIntPair.399" }
%"class.llvm::PointerIntPair.399" = type { %"struct.llvm::detail::PunnedPointer.5" }
%"class.llvm::ArrayRef.418" = type { ptr, i64 }
%"class.llvm::FoldingSetBase::Node" = type { ptr }
%"class.llvm::PointerUnion.470" = type { %"class.llvm::pointer_union_detail::PointerUnionMembers.471" }
%"class.llvm::pointer_union_detail::PointerUnionMembers.471" = type { %"class.llvm::pointer_union_detail::PointerUnionMembers.472" }
%"class.llvm::pointer_union_detail::PointerUnionMembers.472" = type { %"class.llvm::pointer_union_detail::PointerUnionMembers.473" }
%"class.llvm::pointer_union_detail::PointerUnionMembers.473" = type { %"class.llvm::PointerIntPair.474" }
%"class.llvm::PointerIntPair.474" = type { %"struct.llvm::detail::PunnedPointer.5" }
%"class.clang::VarDecl.base" = type <{ %"class.clang::DeclaratorDecl.base", [4 x i8], %"class.clang::Redeclarable.550", %"class.llvm::PointerUnion.551", %union.anon.556 }>
%"class.clang::Redeclarable.550" = type { %"class.clang::Redeclarable<clang::VarDecl>::DeclLink", ptr }
%"class.clang::Redeclarable<clang::VarDecl>::DeclLink" = type { %"class.llvm::PointerUnion.395" }
%"class.llvm::PointerUnion.551" = type { %"class.llvm::pointer_union_detail::PointerUnionMembers.552" }
%"class.llvm::pointer_union_detail::PointerUnionMembers.552" = type { %"class.llvm::pointer_union_detail::PointerUnionMembers.553" }
%"class.llvm::pointer_union_detail::PointerUnionMembers.553" = type { %"class.llvm::pointer_union_detail::PointerUnionMembers.554" }
%"class.llvm::pointer_union_detail::PointerUnionMembers.554" = type { %"class.llvm::PointerIntPair.555" }
%"class.llvm::PointerIntPair.555" = type { %"struct.llvm::detail::PunnedPointer.5" }
%union.anon.556 = type { i32 }
%"class.llvm::PointerUnion.573" = type { %"class.llvm::pointer_union_detail::PointerUnionMembers.574" }
%"class.llvm::pointer_union_detail::PointerUnionMembers.574" = type { %"class.llvm::pointer_union_detail::PointerUnionMembers.575" }
%"class.llvm::pointer_union_detail::PointerUnionMembers.575" = type { %"class.llvm::pointer_union_detail::PointerUnionMembers.576" }
%"class.llvm::pointer_union_detail::PointerUnionMembers.576" = type { %"class.llvm::PointerIntPair.577" }
%"class.llvm::PointerIntPair.577" = type { %"struct.llvm::detail::PunnedPointer.5" }
%"class.clang::VarTemplateSpecializationDecl" = type <{ %"class.clang::VarDecl.base", [4 x i8], %"class.llvm::FoldingSetBase::Node", %"class.llvm::PointerUnion.573", %"class.llvm::PointerUnion.470", ptr, %"class.clang::SourceLocation", i8, [3 x i8] }>

; Function Attrs: mustprogress nounwind uwtable
define linkonce_odr hidden void @_ZN5clang29VarTemplateSpecializationDecl21setSpecializationKindENS_26TemplateSpecializationKindE(ptr noundef nonnull align 8 dereferenceable(141) %0, i32 noundef %1) #0 comdat align 2 {
  %3 = alloca ptr, align 8
  %4 = alloca i32, align 4
  store ptr %0, ptr %3, align 8
  store i32 %1, ptr %4, align 4
  %5 = load ptr, ptr %3, align 8
  %6 = load i32, ptr %4, align 4
  %7 = getelementptr inbounds nuw %"class.clang::VarTemplateSpecializationDecl", ptr %5, i32 0, i32 7
  %8 = trunc i32 %6 to i8
  %9 = load i8, ptr %7, align 4
  %10 = and i8 %8, 7
  %11 = and i8 %9, -8
  %12 = or i8 %11, %10
  store i8 %12, ptr %7, align 4
  ret void
}

; Function Attrs: mustprogress nounwind uwtable
define dso_local noundef ptr @_ZN5clang36VarTemplatePartialSpecializationDecl6CreateERNS_10ASTContextEPNS_11DeclContextENS_14SourceLocationES5_PNS_21TemplateParameterListEPNS_15VarTemplateDeclENS_8QualTypeEPNS_14TypeSourceInfoENS_12StorageClassEN4llvm8ArrayRefINS_16TemplateArgumentEEE(ptr noundef nonnull align 8 dereferenceable(23096) %0, ptr noundef %1, i32 %2, i32 %3, ptr noundef %4, ptr noundef %5, i64 %6, ptr noundef %7, i32 noundef %8, ptr noundef byval(%"class.llvm::ArrayRef.418") align 8 %9) #0 align 2 {
  %11 = alloca %"class.clang::SourceLocation", align 4
  %12 = alloca %"class.clang::SourceLocation", align 4
  %13 = alloca %"class.clang::QualType", align 8
  %14 = alloca ptr, align 8
  %15 = alloca ptr, align 8
  %16 = alloca ptr, align 8
  %17 = alloca ptr, align 8
  %18 = alloca ptr, align 8
  %19 = alloca i32, align 4
  %20 = alloca ptr, align 8
  %21 = alloca %"class.clang::SourceLocation", align 4
  %22 = alloca %"class.clang::SourceLocation", align 4
  %23 = alloca %"class.clang::QualType", align 8
  %24 = alloca %"class.llvm::ArrayRef.418", align 8
  %25 = getelementptr inbounds nuw %"class.clang::SourceLocation", ptr %11, i32 0, i32 0
  store i32 %2, ptr %25, align 4
  %26 = getelementptr inbounds nuw %"class.clang::SourceLocation", ptr %12, i32 0, i32 0
  store i32 %3, ptr %26, align 4
  %27 = getelementptr inbounds nuw %"class.clang::QualType", ptr %13, i32 0, i32 0
  %28 = getelementptr inbounds nuw %"class.llvm::PointerIntPair.6", ptr %27, i32 0, i32 0
  %29 = getelementptr inbounds nuw %"struct.llvm::detail::PunnedPointer.7", ptr %28, i32 0, i32 0
  store i64 %6, ptr %29, align 8
  store ptr %0, ptr %14, align 8
  store ptr %1, ptr %15, align 8
  store ptr %4, ptr %16, align 8
  store ptr %5, ptr %17, align 8
  store ptr %7, ptr %18, align 8
  store i32 %8, ptr %19, align 4
  %30 = load ptr, ptr %14, align 8
  %31 = load ptr, ptr %15, align 8
  %32 = call noundef ptr @_ZN5clang4DeclnwEmRKNS_10ASTContextEPNS_11DeclContextEm(i64 noundef 160, ptr noundef nonnull align 8 dereferenceable(23096) %30, ptr noundef %31, i64 noundef 0)
  %33 = load ptr, ptr %14, align 8
  %34 = load ptr, ptr %15, align 8
  call void @llvm.memcpy.p0.p0.i64(ptr align 4 %21, ptr align 4 %11, i64 4, i1 false)
  call void @llvm.memcpy.p0.p0.i64(ptr align 4 %22, ptr align 4 %12, i64 4, i1 false)
  %35 = load ptr, ptr %16, align 8
  %36 = load ptr, ptr %17, align 8
  call void @llvm.memcpy.p0.p0.i64(ptr align 8 %23, ptr align 8 %13, i64 8, i1 false)
  %37 = load ptr, ptr %18, align 8
  %38 = load i32, ptr %19, align 4
  call void @llvm.memcpy.p0.p0.i64(ptr align 8 %24, ptr align 8 %9, i64 16, i1 false)
  %39 = getelementptr inbounds nuw %"class.clang::SourceLocation", ptr %21, i32 0, i32 0
  %40 = load i32, ptr %39, align 4
  %41 = getelementptr inbounds nuw %"class.clang::SourceLocation", ptr %22, i32 0, i32 0
  %42 = load i32, ptr %41, align 4
  %43 = getelementptr inbounds nuw %"class.clang::QualType", ptr %23, i32 0, i32 0
  %44 = getelementptr inbounds nuw %"class.llvm::PointerIntPair.6", ptr %43, i32 0, i32 0
  %45 = getelementptr inbounds nuw %"struct.llvm::detail::PunnedPointer.7", ptr %44, i32 0, i32 0
  %46 = load i64, ptr %45, align 8
  call void @_ZN5clang36VarTemplatePartialSpecializationDeclC1ERNS_10ASTContextEPNS_11DeclContextENS_14SourceLocationES5_PNS_21TemplateParameterListEPNS_15VarTemplateDeclENS_8QualTypeEPNS_14TypeSourceInfoENS_12StorageClassEN4llvm8ArrayRefINS_16TemplateArgumentEEE(ptr noundef nonnull align 8 dereferenceable(160) %32, ptr noundef nonnull align 8 dereferenceable(23096) %33, ptr noundef %34, i32 %40, i32 %42, ptr noundef %35, ptr noundef %36, i64 %46, ptr noundef %37, i32 noundef %38, ptr noundef byval(%"class.llvm::ArrayRef.418") align 8 %24)
  store ptr %32, ptr %20, align 8
  %47 = load ptr, ptr %20, align 8
  call void @_ZN5clang29VarTemplateSpecializationDecl21setSpecializationKindENS_26TemplateSpecializationKindE(ptr noundef nonnull align 8 dereferenceable(141) %47, i32 noundef 2)
  %48 = load ptr, ptr %20, align 8
  ret ptr %48
}