; Function Attrs: mustprogress nounwind uwtable
define dso_local noundef ptr @_ZN5clang36VarTemplatePartialSpecializationDecl6CreateERNS_10ASTContextEPNS_11DeclContextENS_14SourceLocationES5_PNS_21TemplateParameterListEPNS_15VarTemplateDeclENS_8QualTypeEPNS_14TypeSourceInfoENS_12StorageClassEN4llvm8ArrayRefINS_16TemplateArgumentEEE(ptr noundef nonnull align 8 dereferenceable(23096) %0, ptr noundef %1, i32 %2, i32 %3, ptr noundef %4, ptr noundef %5, i64 %6, ptr noundef %7, i32 noundef %8, ptr noundef readonly byval(%"class.llvm::ArrayRef.418") align 8 captures(none) %9) local_unnamed_addr #0 align 2 {
  %11 = tail call noundef ptr @_ZN5clang4DeclnwEmRKNS_10ASTContextEPNS_11DeclContextEm(i64 noundef 160, ptr noundef nonnull align 8 dereferenceable(23096) %0, ptr noundef %1, i64 noundef 0) #21
  tail call void @_ZN5clang36VarTemplatePartialSpecializationDeclC1ERNS_10ASTContextEPNS_11DeclContextENS_14SourceLocationES5_PNS_21TemplateParameterListEPNS_15VarTemplateDeclENS_8QualTypeEPNS_14TypeSourceInfoENS_12StorageClassEN4llvm8ArrayRefINS_16TemplateArgumentEEE(ptr noundef nonnull align 8 dereferenceable(160) %11, ptr noundef nonnull align 8 dereferenceable(23096) %0, ptr noundef %1, i32 %2, i32 %3, ptr noundef %4, ptr noundef %5, i64 %6, ptr noundef %7, i32 noundef %8, ptr noundef nonnull byval(%"class.llvm::ArrayRef.418") align 8 %9) #21
  %12 = getelementptr inbounds nuw i8, ptr %11, i64 140
  %13 = load i8, ptr %12, align 4
  %14 = and i8 %13, -8
  %15 = or disjoint i8 %14, 2
  store i8 %15, ptr %12, align 4
  ret ptr %11
}